; ModuleID = '25/1170.cpp'
source_filename = "25/1170.cpp"
target datalayout = "e-m:e-p270:32:32-p271:32:32-p272:64:64-i64:64-f80:128-n8:16:32:64-S128"
target triple = "x86_64-pc-linux-gnu"

%"class.std::ios_base::Init" = type { i8 }
%"class.std::basic_istream" = type { i32 (...)**, i64, %"class.std::basic_ios" }
%"class.std::basic_ios" = type { %"class.std::ios_base", %"class.std::basic_ostream"*, i8, i8, %"class.std::basic_streambuf"*, %"class.std::ctype"*, %"class.std::num_put"*, %"class.std::num_get"* }
%"class.std::ios_base" = type { i32 (...)**, i64, i64, i32, i32, i32, %"struct.std::ios_base::_Callback_list"*, %"struct.std::ios_base::_Words", [8 x %"struct.std::ios_base::_Words"], i32, %"struct.std::ios_base::_Words"*, %"class.std::locale" }
%"struct.std::ios_base::_Callback_list" = type { %"struct.std::ios_base::_Callback_list"*, void (i32, %"class.std::ios_base"*, i32)*, i32, i32 }
%"struct.std::ios_base::_Words" = type { i8*, i64 }
%"class.std::locale" = type { %"class.std::locale::_Impl"* }
%"class.std::locale::_Impl" = type { i32, %"class.std::locale::facet"**, i64, %"class.std::locale::facet"**, i8** }
%"class.std::locale::facet" = type <{ i32 (...)**, i32, [4 x i8] }>
%"class.std::basic_ostream" = type { i32 (...)**, %"class.std::basic_ios" }
%"class.std::basic_streambuf" = type { i32 (...)**, i8*, i8*, i8*, i8*, i8*, i8*, %"class.std::locale" }
%"class.std::ctype" = type <{ %"class.std::locale::facet.base", [4 x i8], %struct.__locale_struct*, i8, [7 x i8], i32*, i32*, i16*, i8, [256 x i8], [256 x i8], i8, [6 x i8] }>
%"class.std::locale::facet.base" = type <{ i32 (...)**, i32 }>
%struct.__locale_struct = type { [13 x %struct.__locale_data*], i16*, i32*, i32*, [13 x i8*] }
%struct.__locale_data = type opaque
%"class.std::num_put" = type { %"class.std::locale::facet.base", [4 x i8] }
%"class.std::num_get" = type { %"class.std::locale::facet.base", [4 x i8] }

@_ZStL8__ioinit = internal global %"class.std::ios_base::Init" zeroinitializer, align 1
@__dso_handle = external hidden global i8
@num = dso_local global [100000 x i32] zeroinitializer, align 16
@_ZSt3cin = external dso_local global %"class.std::basic_istream", align 8
@_ZSt4cout = external dso_local global %"class.std::basic_ostream", align 8
@llvm.global_ctors = appending global [1 x { i32, void ()*, i8* }] [{ i32, void ()*, i8* } { i32 65535, void ()* @_GLOBAL__sub_I_1170.cpp, i8* null }]

; Function Attrs: noinline uwtable
define internal void @__cxx_global_var_init() #0 section ".text.startup" {
  call void @_ZNSt8ios_base4InitC1Ev(%"class.std::ios_base::Init"* @_ZStL8__ioinit)
  %1 = call i32 @__cxa_atexit(void (i8*)* bitcast (void (%"class.std::ios_base::Init"*)* @_ZNSt8ios_base4InitD1Ev to void (i8*)*), i8* getelementptr inbounds (%"class.std::ios_base::Init", %"class.std::ios_base::Init"* @_ZStL8__ioinit, i32 0, i32 0), i8* @__dso_handle) #3
  ret void
}

declare dso_local void @_ZNSt8ios_base4InitC1Ev(%"class.std::ios_base::Init"*) unnamed_addr #1

; Function Attrs: nounwind
declare dso_local void @_ZNSt8ios_base4InitD1Ev(%"class.std::ios_base::Init"*) unnamed_addr #2

; Function Attrs: nounwind
declare dso_local i32 @__cxa_atexit(void (i8*)*, i8*, i8*) #3

; Function Attrs: noinline nounwind uwtable
define dso_local void @_Z3pluv() #4 {
  %1 = alloca [100000 x i32], align 16
  %2 = alloca i32, align 4
  %3 = alloca i32, align 4
  %4 = alloca i32, align 4
  %5 = alloca i32, align 4
  store i32 0, i32* %2, align 4
  br label %6

6:                                                ; preds = %13, %0
  %7 = load i32, i32* %2, align 4
  %8 = icmp slt i32 %7, 110
  br i1 %8, label %9, label %16

9:                                                ; preds = %6
  %10 = load i32, i32* %2, align 4
  %11 = sext i32 %10 to i64
  %12 = getelementptr inbounds [100000 x i32], [100000 x i32]* %1, i64 0, i64 %11
  store i32 0, i32* %12, align 4
  br label %13

13:                                               ; preds = %9
  %14 = load i32, i32* %2, align 4
  %15 = add nsw i32 %14, 1
  store i32 %15, i32* %2, align 4
  br label %6

16:                                               ; preds = %6
  store i32 0, i32* %3, align 4
  br label %17

17:                                               ; preds = %23, %16
  %18 = load i32, i32* %3, align 4
  %19 = sext i32 %18 to i64
  %20 = getelementptr inbounds [100000 x i32], [100000 x i32]* @num, i64 0, i64 %19
  %21 = load i32, i32* %20, align 4
  %22 = icmp ne i32 %21, -1
  br i1 %22, label %23, label %50

23:                                               ; preds = %17
  %24 = load i32, i32* %3, align 4
  %25 = sext i32 %24 to i64
  %26 = getelementptr inbounds [100000 x i32], [100000 x i32]* @num, i64 0, i64 %25
  %27 = load i32, i32* %26, align 4
  %28 = mul nsw i32 %27, 2
  %29 = srem i32 %28, 10
  %30 = load i32, i32* %3, align 4
  %31 = sext i32 %30 to i64
  %32 = getelementptr inbounds [100000 x i32], [100000 x i32]* %1, i64 0, i64 %31
  %33 = load i32, i32* %32, align 4
  %34 = add nsw i32 %29, %33
  %35 = load i32, i32* %3, align 4
  %36 = sext i32 %35 to i64
  %37 = getelementptr inbounds [100000 x i32], [100000 x i32]* %1, i64 0, i64 %36
  store i32 %34, i32* %37, align 4
  %38 = load i32, i32* %3, align 4
  %39 = sext i32 %38 to i64
  %40 = getelementptr inbounds [100000 x i32], [100000 x i32]* @num, i64 0, i64 %39
  %41 = load i32, i32* %40, align 4
  %42 = mul nsw i32 %41, 2
  %43 = sdiv i32 %42, 10
  %44 = load i32, i32* %3, align 4
  %45 = add nsw i32 %44, 1
  %46 = sext i32 %45 to i64
  %47 = getelementptr inbounds [100000 x i32], [100000 x i32]* %1, i64 0, i64 %46
  store i32 %43, i32* %47, align 4
  %48 = load i32, i32* %3, align 4
  %49 = add nsw i32 %48, 1
  store i32 %49, i32* %3, align 4
  br label %17

50:                                               ; preds = %17
  store i32 60, i32* %4, align 4
  br label %51

51:                                               ; preds = %57, %50
  %52 = load i32, i32* %4, align 4
  %53 = sext i32 %52 to i64
  %54 = getelementptr inbounds [100000 x i32], [100000 x i32]* %1, i64 0, i64 %53
  %55 = load i32, i32* %54, align 4
  %56 = icmp eq i32 %55, 0
  br i1 %56, label %57, label %60

57:                                               ; preds = %51
  %58 = load i32, i32* %4, align 4
  %59 = add nsw i32 %58, -1
  store i32 %59, i32* %4, align 4
  br label %51

60:                                               ; preds = %51
  %61 = load i32, i32* %4, align 4
  store i32 %61, i32* %5, align 4
  br label %62

62:                                               ; preds = %73, %60
  %63 = load i32, i32* %5, align 4
  %64 = icmp sgt i32 %63, -1
  br i1 %64, label %65, label %76

65:                                               ; preds = %62
  %66 = load i32, i32* %5, align 4
  %67 = sext i32 %66 to i64
  %68 = getelementptr inbounds [100000 x i32], [100000 x i32]* %1, i64 0, i64 %67
  %69 = load i32, i32* %68, align 4
  %70 = load i32, i32* %5, align 4
  %71 = sext i32 %70 to i64
  %72 = getelementptr inbounds [100000 x i32], [100000 x i32]* @num, i64 0, i64 %71
  store i32 %69, i32* %72, align 4
  br label %73

73:                                               ; preds = %65
  %74 = load i32, i32* %5, align 4
  %75 = add nsw i32 %74, -1
  store i32 %75, i32* %5, align 4
  br label %62

76:                                               ; preds = %62
  ret void
}

; Function Attrs: noinline norecurse uwtable
define dso_local i32 @main() #5 {
  %1 = alloca i32, align 4
  %2 = alloca i32, align 4
  %3 = alloca i32, align 4
  %4 = alloca i32, align 4
  %5 = alloca i32, align 4
  %6 = alloca i32, align 4
  store i32 0, i32* %1, align 4
  %7 = call dereferenceable(280) %"class.std::basic_istream"* @_ZNSirsERi(%"class.std::basic_istream"* @_ZSt3cin, i32* dereferenceable(4) %2)
  %8 = load i32, i32* %2, align 4
  %9 = icmp eq i32 %8, 1
  br i1 %9, label %10, label %12

10:                                               ; preds = %0
  %11 = call dereferenceable(272) %"class.std::basic_ostream"* @_ZNSolsEi(%"class.std::basic_ostream"* @_ZSt4cout, i32 2)
  store i32 0, i32* %1, align 4
  br label %64

12:                                               ; preds = %0
  %13 = load i32, i32* %2, align 4
  %14 = icmp eq i32 %13, 0
  br i1 %14, label %15, label %17

15:                                               ; preds = %12
  %16 = call dereferenceable(272) %"class.std::basic_ostream"* @_ZNSolsEi(%"class.std::basic_ostream"* @_ZSt4cout, i32 1)
  store i32 0, i32* %1, align 4
  br label %64

17:                                               ; preds = %12
  store i32 0, i32* %3, align 4
  br label %18

18:                                               ; preds = %26, %17
  %19 = load i32, i32* %3, align 4
  %20 = load i32, i32* %2, align 4
  %21 = icmp slt i32 %19, %20
  br i1 %21, label %22, label %29

22:                                               ; preds = %18
  %23 = load i32, i32* %3, align 4
  %24 = sext i32 %23 to i64
  %25 = getelementptr inbounds [100000 x i32], [100000 x i32]* @num, i64 0, i64 %24
  store i32 -1, i32* %25, align 4
  br label %26

26:                                               ; preds = %22
  %27 = load i32, i32* %3, align 4
  %28 = add nsw i32 %27, 1
  store i32 %28, i32* %3, align 4
  br label %18

29:                                               ; preds = %18
  store i32 1, i32* getelementptr inbounds ([100000 x i32], [100000 x i32]* @num, i64 0, i64 0), align 16
  store i32 0, i32* %4, align 4
  br label %30

30:                                               ; preds = %35, %29
  %31 = load i32, i32* %4, align 4
  %32 = load i32, i32* %2, align 4
  %33 = icmp slt i32 %31, %32
  br i1 %33, label %34, label %38

34:                                               ; preds = %30
  call void @_Z3pluv()
  br label %35

35:                                               ; preds = %34
  %36 = load i32, i32* %4, align 4
  %37 = add nsw i32 %36, 1
  store i32 %37, i32* %4, align 4
  br label %30

38:                                               ; preds = %30
  store i32 0, i32* %5, align 4
  br label %39

39:                                               ; preds = %45, %38
  %40 = load i32, i32* %5, align 4
  %41 = sext i32 %40 to i64
  %42 = getelementptr inbounds [100000 x i32], [100000 x i32]* @num, i64 0, i64 %41
  %43 = load i32, i32* %42, align 4
  %44 = icmp ne i32 %43, -1
  br i1 %44, label %45, label %48

45:                                               ; preds = %39
  %46 = load i32, i32* %5, align 4
  %47 = add nsw i32 %46, 1
  store i32 %47, i32* %5, align 4
  br label %39

48:                                               ; preds = %39
  %49 = load i32, i32* %5, align 4
  %50 = sub nsw i32 %49, 1
  store i32 %50, i32* %6, align 4
  br label %51

51:                                               ; preds = %60, %48
  %52 = load i32, i32* %6, align 4
  %53 = icmp sgt i32 %52, -1
  br i1 %53, label %54, label %63

54:                                               ; preds = %51
  %55 = load i32, i32* %6, align 4
  %56 = sext i32 %55 to i64
  %57 = getelementptr inbounds [100000 x i32], [100000 x i32]* @num, i64 0, i64 %56
  %58 = load i32, i32* %57, align 4
  %59 = call dereferenceable(272) %"class.std::basic_ostream"* @_ZNSolsEi(%"class.std::basic_ostream"* @_ZSt4cout, i32 %58)
  br label %60

60:                                               ; preds = %54
  %61 = load i32, i32* %6, align 4
  %62 = add nsw i32 %61, -1
  store i32 %62, i32* %6, align 4
  br label %51

63:                                               ; preds = %51
  store i32 0, i32* %1, align 4
  br label %64

64:                                               ; preds = %63, %15, %10
  %65 = load i32, i32* %1, align 4
  ret i32 %65
}

declare dso_local dereferenceable(280) %"class.std::basic_istream"* @_ZNSirsERi(%"class.std::basic_istream"*, i32* dereferenceable(4)) #1

declare dso_local dereferenceable(272) %"class.std::basic_ostream"* @_ZNSolsEi(%"class.std::basic_ostream"*, i32) #1

; Function Attrs: noinline uwtable
define internal void @_GLOBAL__sub_I_1170.cpp() #0 section ".text.startup" {
  call void @__cxx_global_var_init()
  ret void
}


!llvm.module.flags = !{!0}
!llvm.ident = !{!1}

!0 = !{i32 1, !"wchar_size", i32 4}
!1 = !{!"clang version 10.0.0-4ubuntu1 "}
